; Function Attrs: mustprogress uwtable
define dso_local void @_ZN10ImDrawList13_SetTextureIDEPv(ptr noundef nonnull align 8 captures(none) dereferenceable(200) %0, ptr noundef %1) local_unnamed_addr #9 align 2 {
  %3 = getelementptr inbounds nuw i8, ptr %0, i64 112
  %4 = load ptr, ptr %3, align 8, !tbaa !84
  %5 = icmp eq ptr %4, %1
  br i1 %5, label %7, label %6

6:                                                ; preds = %2
  store ptr %1, ptr %3, align 8, !tbaa !84
  tail call void @_ZN10ImDrawList19_OnChangedTextureIDEv(ptr noundef nonnull align 8 dereferenceable(200) %0)
  br label %7

7:                                                ; preds = %2, %6
  ret void
}